
./VeerFiles/TEST2.exe:     file format elf32-littleriscv


Disassembly of section .text:

80000000 <_start>:
80000000:	2015                	jal	80000024 <initHelperVector>
80000002:	70040517          	auipc	a0,0x70040
80000006:	ffe50513          	addi	a0,a0,-2 # f0040000 <real>
8000000a:	70040597          	auipc	a1,0x70040
8000000e:	1f658593          	addi	a1,a1,502 # f0040200 <imag>
80000012:	70040617          	auipc	a2,0x70040
80000016:	3ee60613          	addi	a2,a2,1006 # f0040400 <size>
8000001a:	4210                	lw	a2,0(a2)
8000001c:	2649                	jal	8000039e <vFFT>
8000001e:	2e49                	jal	800003b0 <vIFFT>
80000020:	2ee1                	jal	800003f8 <print>
80000022:	a92d                	j	8000045c <_finish>

80000024 <initHelperVector>:
80000024:	70041297          	auipc	t0,0x70041
80000028:	a0428293          	addi	t0,t0,-1532 # f0040a28 <helperVector>
8000002c:	40000313          	li	t1,1024
80000030:	4381                	li	t2,0

80000032 <helperVectorLoop>:
80000032:	0063d763          	bge	t2,t1,80000040 <endHelperVectorLoop>
80000036:	0072a023          	sw	t2,0(t0)
8000003a:	0291                	addi	t0,t0,4
8000003c:	0385                	addi	t2,t2,1
8000003e:	bfd5                	j	80000032 <helperVectorLoop>

80000040 <endHelperVectorLoop>:
80000040:	8082                	ret

80000042 <logInt>:
80000042:	000502b3          	add	t0,a0,zero
80000046:	00000533          	add	a0,zero,zero

8000004a <logLoop>:
8000004a:	00028663          	beqz	t0,80000056 <logLoopEnd>
8000004e:	4012d293          	srai	t0,t0,0x1
80000052:	0505                	addi	a0,a0,1
80000054:	bfdd                	j	8000004a <logLoop>

80000056 <logLoopEnd>:
80000056:	157d                	addi	a0,a0,-1
80000058:	8082                	ret

8000005a <vReverse>:
8000005a:	1171                	addi	sp,sp,-4
8000005c:	c006                	sw	ra,0(sp)
8000005e:	37d5                	jal	80000042 <logInt>
80000060:	4082                	lw	ra,0(sp)
80000062:	0111                	addi	sp,sp,4
80000064:	4285                	li	t0,1
80000066:	4305                	li	t1,1
80000068:	5e003e57          	vmv.v.i	v28,0

8000006c <vReverseFor>:
8000006c:	02554263          	blt	a0,t0,80000090 <vReverseForEnd>
80000070:	405503b3          	sub	t2,a0,t0
80000074:	00731e33          	sll	t3,t1,t2
80000078:	27de4057          	vand.vx	v0,v29,t3
8000007c:	66004057          	vmsne.vx	v0,v0,zero
80000080:	fff28e93          	addi	t4,t0,-1
80000084:	01d31e33          	sll	t3,t1,t4
80000088:	29ce4e57          	vor.vx	v28,v28,t3,v0.t
8000008c:	0285                	addi	t0,t0,1
8000008e:	bff9                	j	8000006c <vReverseFor>

80000090 <vReverseForEnd>:
80000090:	5e0e0ed7          	vmv.v.v	v29,v28
80000094:	8082                	ret

80000096 <vMySin>:
80000096:	70041297          	auipc	t0,0x70041
8000009a:	98628293          	addi	t0,t0,-1658 # f0040a1c <NEG_HALF_PI>
8000009e:	70041317          	auipc	t1,0x70041
800000a2:	96e30313          	addi	t1,t1,-1682 # f0040a0c <NEG_PI>
800000a6:	0002a087          	flw	ft1,0(t0)
800000aa:	00032107          	flw	ft2,0(t1)
800000ae:	6ff0d057          	vmflt.vf	v0,v31,ft1
800000b2:	9df15fd7          	vfrsub.vf	v31,v31,ft2,v0.t
800000b6:	76002057          	vmnot.m	v0,v0
800000ba:	201090d3          	fneg.s	ft1,ft1
800000be:	20211153          	fneg.s	ft2,ft2
800000c2:	75f0d057          	vmfgt.vf	v0,v31,ft1,v0.t
800000c6:	9df15fd7          	vfrsub.vf	v31,v31,ft2,v0.t
800000ca:	93ff9157          	vfmul.vv	v2,v31,v31
800000ce:	26211157          	vfneg.v	v2,v2
800000d2:	5e0f81d7          	vmv.v.v	v3,v31
800000d6:	4285                	li	t0,1
800000d8:	d002f0d3          	fcvt.s.w	ft1,t0
800000dc:	70041317          	auipc	t1,0x70041
800000e0:	94830313          	addi	t1,t1,-1720 # f0040a24 <TERMS>
800000e4:	00032303          	lw	t1,0(t1)

800000e8 <vSinFor>:
800000e8:	02534463          	blt	t1,t0,80000110 <vSinForEnd>
800000ec:	00129e93          	slli	t4,t0,0x1
800000f0:	001e8f13          	addi	t5,t4,1
800000f4:	03df0f33          	mul	t5,t5,t4
800000f8:	d00f7153          	fcvt.s.w	ft2,t5
800000fc:	1020f0d3          	fmul.s	ft1,ft1,ft2
80000100:	923111d7          	vfmul.vv	v3,v3,v2
80000104:	8230d2d7          	vfdiv.vf	v5,v3,ft1
80000108:	03f29fd7          	vfadd.vv	v31,v31,v5
8000010c:	0285                	addi	t0,t0,1
8000010e:	bfe9                	j	800000e8 <vSinFor>

80000110 <vSinForEnd>:
80000110:	8082                	ret

80000112 <vMyCos>:
80000112:	5e00b0d7          	vmv.v.i	v1,1
80000116:	70041297          	auipc	t0,0x70041
8000011a:	90628293          	addi	t0,t0,-1786 # f0040a1c <NEG_HALF_PI>
8000011e:	70041317          	auipc	t1,0x70041
80000122:	8ee30313          	addi	t1,t1,-1810 # f0040a0c <NEG_PI>
80000126:	0002a087          	flw	ft1,0(t0)
8000012a:	00032107          	flw	ft2,0(t1)
8000012e:	6fe0d057          	vmflt.vf	v0,v30,ft1
80000132:	9de15f57          	vfrsub.vf	v30,v30,ft2,v0.t
80000136:	0c1040d7          	vneg.v	v1,v1,v0.t
8000013a:	201090d3          	fneg.s	ft1,ft1
8000013e:	20211153          	fneg.s	ft2,ft2
80000142:	76002057          	vmnot.m	v0,v0
80000146:	75e0d057          	vmfgt.vf	v0,v30,ft1,v0.t
8000014a:	9de15f57          	vfrsub.vf	v30,v30,ft2,v0.t
8000014e:	0c1040d7          	vneg.v	v1,v1,v0.t
80000152:	93ef1157          	vfmul.vv	v2,v30,v30
80000156:	26211157          	vfneg.v	v2,v2
8000015a:	4285                	li	t0,1
8000015c:	d002f0d3          	fcvt.s.w	ft1,t0
80000160:	5e00d1d7          	vfmv.v.f	v3,ft1
80000164:	5e00df57          	vfmv.v.f	v30,ft1
80000168:	70041317          	auipc	t1,0x70041
8000016c:	8bc30313          	addi	t1,t1,-1860 # f0040a24 <TERMS>
80000170:	00032303          	lw	t1,0(t1)

80000174 <vCosFor>:
80000174:	02534463          	blt	t1,t0,8000019c <vCosForEnd>
80000178:	00129e93          	slli	t4,t0,0x1
8000017c:	fffe8f13          	addi	t5,t4,-1
80000180:	03df0f33          	mul	t5,t5,t4
80000184:	d00f7153          	fcvt.s.w	ft2,t5
80000188:	1020f0d3          	fmul.s	ft1,ft1,ft2
8000018c:	923111d7          	vfmul.vv	v3,v3,v2
80000190:	8230d2d7          	vfdiv.vf	v5,v3,ft1
80000194:	03e29f57          	vfadd.vv	v30,v30,v5
80000198:	0285                	addi	t0,t0,1
8000019a:	bfe9                	j	80000174 <vCosFor>

8000019c <vCosForEnd>:
8000019c:	4a1190d7          	vfcvt.f.x.v	v1,v1
800001a0:	93e09f57          	vfmul.vv	v30,v30,v1
800001a4:	8082                	ret

800001a6 <vOrdina>:
800001a6:	fdc10113          	addi	sp,sp,-36
800001aa:	c02a                	sw	a0,0(sp)
800001ac:	c22e                	sw	a1,4(sp)
800001ae:	c432                	sw	a2,8(sp)
800001b0:	c636                	sw	a3,12(sp)
800001b2:	c83a                	sw	a4,16(sp)
800001b4:	8f2a                	mv	t5,a0
800001b6:	8fae                	mv	t6,a1
800001b8:	70040697          	auipc	a3,0x70040
800001bc:	25068693          	addi	a3,a3,592 # f0040408 <real_temp>
800001c0:	70040717          	auipc	a4,0x70040
800001c4:	44870713          	addi	a4,a4,1096 # f0040608 <imag_temp>
800001c8:	010672d7          	vsetvli	t0,a2,e32,m1,tu,mu
800001cc:	70041317          	auipc	t1,0x70041
800001d0:	85c30313          	addi	t1,t1,-1956 # f0040a28 <helperVector>
800001d4:	02036d07          	vle32.v	v26,(t1)
800001d8:	4301                	li	t1,0

800001da <vOrdinaLoop>:
800001da:	02c35c63          	bge	t1,a2,80000212 <endVOrdinaLoop>
800001de:	1161                	addi	sp,sp,-8
800001e0:	c006                	sw	ra,0(sp)
800001e2:	c21a                	sw	t1,4(sp)
800001e4:	8532                	mv	a0,a2
800001e6:	5e0d0ed7          	vmv.v.v	v29,v26
800001ea:	3d85                	jal	8000005a <vReverse>
800001ec:	4082                	lw	ra,0(sp)
800001ee:	4312                	lw	t1,4(sp)
800001f0:	0121                	addi	sp,sp,8
800001f2:	97d13ed7          	vsll.vi	v29,v29,2
800001f6:	0fdf6b87          	vloxei32.v	v23,(t5),v29
800001fa:	0fdfec07          	vloxei32.v	v24,(t6),v29
800001fe:	97a13dd7          	vsll.vi	v27,v26,2
80000202:	0fb6eba7          	vsoxei32.v	v23,(a3),v27
80000206:	0fb76c27          	vsoxei32.v	v24,(a4),v27
8000020a:	03a2cd57          	vadd.vx	v26,v26,t0
8000020e:	9316                	add	t1,t1,t0
80000210:	b7e9                	j	800001da <vOrdinaLoop>

80000212 <endVOrdinaLoop>:
80000212:	70041317          	auipc	t1,0x70041
80000216:	81630313          	addi	t1,t1,-2026 # f0040a28 <helperVector>
8000021a:	02036d07          	vle32.v	v26,(t1)
8000021e:	4301                	li	t1,0

80000220 <vOrdinaLoop2>:
80000220:	02c35063          	bge	t1,a2,80000240 <endvOrdinaLoop2>
80000224:	97a13dd7          	vsll.vi	v27,v26,2
80000228:	0fb6eb87          	vloxei32.v	v23,(a3),v27
8000022c:	0fb76c07          	vloxei32.v	v24,(a4),v27
80000230:	0fbf6ba7          	vsoxei32.v	v23,(t5),v27
80000234:	0fbfec27          	vsoxei32.v	v24,(t6),v27
80000238:	03a2cd57          	vadd.vx	v26,v26,t0
8000023c:	9316                	add	t1,t1,t0
8000023e:	b7cd                	j	80000220 <vOrdinaLoop2>

80000240 <endvOrdinaLoop2>:
80000240:	4502                	lw	a0,0(sp)
80000242:	4592                	lw	a1,4(sp)
80000244:	4622                	lw	a2,8(sp)
80000246:	46b2                	lw	a3,12(sp)
80000248:	4742                	lw	a4,16(sp)
8000024a:	02410113          	addi	sp,sp,36
8000024e:	8082                	ret

80000250 <vTransform>:
80000250:	1171                	addi	sp,sp,-4
80000252:	c006                	sw	ra,0(sp)
80000254:	3f89                	jal	800001a6 <vOrdina>
80000256:	4082                	lw	ra,0(sp)
80000258:	0111                	addi	sp,sp,4
8000025a:	70040317          	auipc	t1,0x70040
8000025e:	5ae30313          	addi	t1,t1,1454 # f0040808 <W_real>
80000262:	70040397          	auipc	t2,0x70040
80000266:	6a638393          	addi	t2,t2,1702 # f0040908 <W_imag>
8000026a:	40165713          	srai	a4,a2,0x1
8000026e:	010772d7          	vsetvli	t0,a4,e32,m1,tu,mu
80000272:	4e01                	li	t3,0
80000274:	70040e97          	auipc	t4,0x70040
80000278:	7b4e8e93          	addi	t4,t4,1972 # f0040a28 <helperVector>
8000027c:	020eeb07          	vle32.v	v22,(t4)
80000280:	70040e97          	auipc	t4,0x70040
80000284:	794e8e93          	addi	t4,t4,1940 # f0040a14 <NEG_TWO_PI>
80000288:	000ea087          	flw	ft1,0(t4)
8000028c:	d00671d3          	fcvt.s.w	ft3,a2
80000290:	1830f0d3          	fdiv.s	ft1,ft1,ft3
80000294:	d006f1d3          	fcvt.s.w	ft3,a3
80000298:	1030f0d3          	fmul.s	ft1,ft1,ft3

8000029c <vsincosloop>:
8000029c:	04ee5863          	bge	t3,a4,800002ec <endvsincosloop>
800002a0:	036e4bd7          	vadd.vx	v23,v22,t3
800002a4:	4b719ad7          	vfcvt.f.x.v	v21,v23
800002a8:	9350dad7          	vfmul.vf	v21,v21,ft1
800002ac:	1121                	addi	sp,sp,-24
800002ae:	e006                	fsw	ft1,0(sp)
800002b0:	c272                	sw	t3,4(sp)
800002b2:	c406                	sw	ra,8(sp)
800002b4:	c61a                	sw	t1,12(sp)
800002b6:	c81e                	sw	t2,16(sp)
800002b8:	ca16                	sw	t0,20(sp)
800002ba:	5e0a8f57          	vmv.v.v	v30,v21
800002be:	3d91                	jal	80000112 <vMyCos>
800002c0:	5e0f0a57          	vmv.v.v	v20,v30
800002c4:	5e0a8fd7          	vmv.v.v	v31,v21
800002c8:	33f9                	jal	80000096 <vMySin>
800002ca:	5e0f89d7          	vmv.v.v	v19,v31
800002ce:	6082                	flw	ft1,0(sp)
800002d0:	4e12                	lw	t3,4(sp)
800002d2:	40a2                	lw	ra,8(sp)
800002d4:	4332                	lw	t1,12(sp)
800002d6:	43c2                	lw	t2,16(sp)
800002d8:	42d2                	lw	t0,20(sp)
800002da:	0161                	addi	sp,sp,24
800002dc:	97713bd7          	vsll.vi	v23,v23,2
800002e0:	0f736a27          	vsoxei32.v	v20,(t1),v23
800002e4:	0f73e9a7          	vsoxei32.v	v19,(t2),v23
800002e8:	9e16                	add	t3,t3,t0
800002ea:	bf4d                	j	8000029c <vsincosloop>

800002ec <endvsincosloop>:
800002ec:	4785                	li	a5,1
800002ee:	40165713          	srai	a4,a2,0x1
800002f2:	4401                	li	s0,0
800002f4:	1161                	addi	sp,sp,-8
800002f6:	c02a                	sw	a0,0(sp)
800002f8:	c206                	sw	ra,4(sp)
800002fa:	8532                	mv	a0,a2
800002fc:	3399                	jal	80000042 <logInt>
800002fe:	86aa                	mv	a3,a0
80000300:	4502                	lw	a0,0(sp)
80000302:	4092                	lw	ra,4(sp)
80000304:	0121                	addi	sp,sp,8
80000306:	010672d7          	vsetvli	t0,a2,e32,m1,tu,mu
8000030a:	70040917          	auipc	s2,0x70040
8000030e:	71e90913          	addi	s2,s2,1822 # f0040a28 <helperVector>
80000312:	02096987          	vle32.v	v19,(s2)

80000316 <forTransform>:
80000316:	08d45363          	bge	s0,a3,8000039c <forTransformEnd>
8000031a:	4481                	li	s1,0

8000031c <vinnerloop>:
8000031c:	06c4dc63          	bge	s1,a2,80000394 <vinnerloopend>
80000320:	0334ca57          	vadd.vx	v20,v19,s1
80000324:	2747c957          	vand.vx	v18,v20,a5
80000328:	63204057          	vmseq.vx	v0,v18,zero
8000032c:	95413ad7          	vsll.vi	v21,v20,2,v0.t
80000330:	0d556807          	vloxei32.v	v16,(a0),v21,v0.t
80000334:	0d55e887          	vloxei32.v	v17,(a1),v21,v0.t
80000338:	954767d7          	vmul.vx	v15,v20,a4,v0.t
8000033c:	02e78ab3          	mul	s5,a5,a4
80000340:	8cfae7d7          	vrem.vx	v15,v15,s5,v0.t
80000344:	94f137d7          	vsll.vi	v15,v15,2,v0.t
80000348:	0cf36687          	vloxei32.v	v13,(t1),v15,v0.t
8000034c:	0cf3e707          	vloxei32.v	v14,(t2),v15,v0.t
80000350:	0147c7d7          	vadd.vx	v15,v20,a5,v0.t
80000354:	94f137d7          	vsll.vi	v15,v15,2,v0.t
80000358:	0cf56587          	vloxei32.v	v11,(a0),v15,v0.t
8000035c:	0cf5e607          	vloxei32.v	v12,(a1),v15,v0.t
80000360:	90d593d7          	vfmul.vv	v7,v13,v11,v0.t
80000364:	bcc713d7          	vfnmsac.vv	v7,v14,v12,v0.t
80000368:	90d61457          	vfmul.vv	v8,v13,v12,v0.t
8000036c:	b0b71457          	vfmacc.vv	v8,v14,v11,v0.t
80000370:	010394d7          	vfadd.vv	v9,v16,v7,v0.t
80000374:	01141557          	vfadd.vv	v10,v17,v8,v0.t
80000378:	090392d7          	vfsub.vv	v5,v16,v7,v0.t
8000037c:	09141357          	vfsub.vv	v6,v17,v8,v0.t
80000380:	0d5564a7          	vsoxei32.v	v9,(a0),v21,v0.t
80000384:	0d55e527          	vsoxei32.v	v10,(a1),v21,v0.t
80000388:	0cf562a7          	vsoxei32.v	v5,(a0),v15,v0.t
8000038c:	0cf5e327          	vsoxei32.v	v6,(a1),v15,v0.t
80000390:	9496                	add	s1,s1,t0
80000392:	b769                	j	8000031c <vinnerloop>

80000394 <vinnerloopend>:
80000394:	0786                	slli	a5,a5,0x1
80000396:	8705                	srai	a4,a4,0x1
80000398:	0405                	addi	s0,s0,1
8000039a:	bfb5                	j	80000316 <forTransform>

8000039c <forTransformEnd>:
8000039c:	8082                	ret

8000039e <vFFT>:
8000039e:	1161                	addi	sp,sp,-8
800003a0:	c006                	sw	ra,0(sp)
800003a2:	c236                	sw	a3,4(sp)
800003a4:	4685                	li	a3,1
800003a6:	356d                	jal	80000250 <vTransform>
800003a8:	4082                	lw	ra,0(sp)
800003aa:	4682                	lw	a3,0(sp)
800003ac:	0121                	addi	sp,sp,8
800003ae:	8082                	ret

800003b0 <vIFFT>:
800003b0:	1161                	addi	sp,sp,-8
800003b2:	c006                	sw	ra,0(sp)
800003b4:	c236                	sw	a3,4(sp)
800003b6:	56fd                	li	a3,-1
800003b8:	3d61                	jal	80000250 <vTransform>
800003ba:	4082                	lw	ra,0(sp)
800003bc:	4692                	lw	a3,4(sp)
800003be:	0121                	addi	sp,sp,8
800003c0:	010672d7          	vsetvli	t0,a2,e32,m1,tu,mu
800003c4:	d0067053          	fcvt.s.w	ft0,a2
800003c8:	4301                	li	t1,0
800003ca:	00229393          	slli	t2,t0,0x2
800003ce:	8e2a                	mv	t3,a0
800003d0:	8eae                	mv	t4,a1

800003d2 <vectorIFFTLoop>:
800003d2:	02c35263          	bge	t1,a2,800003f6 <endVectorIFFTLoop>
800003d6:	020e6187          	vle32.v	v3,(t3)
800003da:	020ee207          	vle32.v	v4,(t4)
800003de:	823051d7          	vfdiv.vf	v3,v3,ft0
800003e2:	82405257          	vfdiv.vf	v4,v4,ft0
800003e6:	020e61a7          	vse32.v	v3,(t3)
800003ea:	020ee227          	vse32.v	v4,(t4)
800003ee:	9e1e                	add	t3,t3,t2
800003f0:	9e9e                	add	t4,t4,t2
800003f2:	9316                	add	t1,t1,t0
800003f4:	bff9                	j	800003d2 <vectorIFFTLoop>

800003f6 <endVectorIFFTLoop>:
800003f6:	8082                	ret

800003f8 <print>:
800003f8:	70040317          	auipc	t1,0x70040
800003fc:	00830313          	addi	t1,t1,8 # f0040400 <size>
80000400:	00032e03          	lw	t3,0(t1)
80000404:	70040317          	auipc	t1,0x70040
80000408:	bfc30313          	addi	t1,t1,-1028 # f0040000 <real>
8000040c:	70040397          	auipc	t2,0x70040
80000410:	df438393          	addi	t2,t2,-524 # f0040200 <imag>
80000414:	001232b7          	lui	t0,0x123
80000418:	45628293          	addi	t0,t0,1110 # 123456 <vectorSize+0x123056>
8000041c:	002342b7          	lui	t0,0x234
80000420:	56728293          	addi	t0,t0,1383 # 234567 <vectorSize+0x234167>
80000424:	003452b7          	lui	t0,0x345
80000428:	67828293          	addi	t0,t0,1656 # 345678 <vectorSize+0x345278>
8000042c:	4281                	li	t0,0

8000042e <printloop>:
8000042e:	01c2da63          	bge	t0,t3,80000442 <endPrintLoop>
80000432:	00032007          	flw	ft0,0(t1)
80000436:	0003a087          	flw	ft1,0(t2)
8000043a:	0311                	addi	t1,t1,4
8000043c:	0391                	addi	t2,t2,4
8000043e:	0285                	addi	t0,t0,1
80000440:	b7fd                	j	8000042e <printloop>

80000442 <endPrintLoop>:
80000442:	001232b7          	lui	t0,0x123
80000446:	45628293          	addi	t0,t0,1110 # 123456 <vectorSize+0x123056>
8000044a:	002342b7          	lui	t0,0x234
8000044e:	56728293          	addi	t0,t0,1383 # 234567 <vectorSize+0x234167>
80000452:	003452b7          	lui	t0,0x345
80000456:	67828293          	addi	t0,t0,1656 # 345678 <vectorSize+0x345278>
8000045a:	8082                	ret

8000045c <_finish>:
8000045c:	d05801b7          	lui	gp,0xd0580
80000460:	0ff00293          	li	t0,255
80000464:	00518023          	sb	t0,0(gp) # d0580000 <_end+0x5057facc>
80000468:	fe000ae3          	beqz	zero,8000045c <_finish>
8000046c:	0001                	nop
8000046e:	0001                	nop
80000470:	0001                	nop
80000472:	0001                	nop
80000474:	0001                	nop
80000476:	0001                	nop
80000478:	0001                	nop
8000047a:	0001                	nop
8000047c:	0001                	nop
8000047e:	0001                	nop
80000480:	0001                	nop
80000482:	0001                	nop
80000484:	0001                	nop
80000486:	0001                	nop
80000488:	0001                	nop
8000048a:	0001                	nop
8000048c:	0001                	nop
8000048e:	0001                	nop
80000490:	0001                	nop
80000492:	0001                	nop
80000494:	0001                	nop
80000496:	0001                	nop
80000498:	0001                	nop
8000049a:	0001                	nop
8000049c:	0001                	nop
8000049e:	0001                	nop
800004a0:	0001                	nop
800004a2:	0001                	nop
800004a4:	0001                	nop
800004a6:	0001                	nop
800004a8:	0001                	nop
800004aa:	0001                	nop
800004ac:	0001                	nop
800004ae:	0001                	nop
800004b0:	0001                	nop
800004b2:	0001                	nop
800004b4:	0001                	nop
800004b6:	0001                	nop
800004b8:	0001                	nop
800004ba:	0001                	nop
800004bc:	0001                	nop
800004be:	0001                	nop
800004c0:	0001                	nop
800004c2:	0001                	nop
800004c4:	0001                	nop
800004c6:	0001                	nop
800004c8:	0001                	nop
800004ca:	0001                	nop
800004cc:	0001                	nop
800004ce:	0001                	nop
800004d0:	0001                	nop
800004d2:	0001                	nop
800004d4:	0001                	nop
800004d6:	0001                	nop
800004d8:	0001                	nop
800004da:	0001                	nop
800004dc:	0001                	nop
800004de:	0001                	nop
800004e0:	0001                	nop
800004e2:	0001                	nop
800004e4:	0001                	nop
800004e6:	0001                	nop
800004e8:	0001                	nop
800004ea:	0001                	nop
800004ec:	0001                	nop
800004ee:	0001                	nop
800004f0:	0001                	nop
800004f2:	0001                	nop
800004f4:	0001                	nop
800004f6:	0001                	nop
800004f8:	0001                	nop
800004fa:	0001                	nop
800004fc:	0001                	nop
800004fe:	0001                	nop
80000500:	0001                	nop
80000502:	0001                	nop
80000504:	0001                	nop
80000506:	0001                	nop
80000508:	0001                	nop
8000050a:	0001                	nop
8000050c:	0001                	nop
8000050e:	0001                	nop
80000510:	0001                	nop
80000512:	0001                	nop
80000514:	0001                	nop
80000516:	0001                	nop
80000518:	0001                	nop
8000051a:	0001                	nop
8000051c:	0001                	nop
8000051e:	0001                	nop
80000520:	0001                	nop
80000522:	0001                	nop
80000524:	0001                	nop
80000526:	0001                	nop
80000528:	0001                	nop
8000052a:	0001                	nop
8000052c:	0001                	nop
8000052e:	0001                	nop
80000530:	0001                	nop
80000532:	0001                	nop
